target datalayout = "e-m:e-p270:32:32-p271:32:32-p272:64:64-i64:64-i128:128-f80:128-n8:16:32:64-S128"
target triple = "x86_64-pc-linux-gnu"

%struct.hwloc_topology = type { i32, i32, i32, ptr, ptr, i64, [20 x i32], [20 x i32], i64, i64, i32, ptr, i64, ptr, i64, [6 x %struct.hwloc_special_level_s], ptr, ptr, %struct.hwloc_binding_hooks, %struct.hwloc_topology_support, %struct.hwloc_infos_s, ptr, ptr, i32, ptr, ptr, i32, i32, ptr, i32, i32, ptr, i32, i32, i32, [5 x float], i32, ptr, ptr, i32, i32, ptr, i32, %struct.hwloc_numanode_attr_s, i32, i32, ptr, i64, i32, ptr, ptr, ptr }
%struct.hwloc_special_level_s = type { i32, ptr, ptr, ptr }
%struct.hwloc_binding_hooks = type { ptr, ptr, ptr, ptr, ptr, ptr, ptr, ptr, ptr, ptr, ptr, ptr, ptr, ptr, ptr, ptr, ptr, ptr, ptr, ptr, ptr, ptr, ptr, ptr }
%struct.hwloc_topology_support = type { ptr, ptr, ptr, ptr }
%struct.hwloc_infos_s = type { ptr, i32, i32 }
%struct.hwloc_numanode_attr_s = type { i64, i32, ptr }
%struct.hwloc_obj = type { i32, ptr, i32, ptr, i64, ptr, i32, i32, ptr, ptr, ptr, i32, ptr, ptr, i32, ptr, ptr, ptr, i32, i32, ptr, i32, ptr, i32, ptr, ptr, ptr, ptr, ptr, %struct.hwloc_infos_s, ptr, i64 }
%struct.hwloc_backend = type { ptr, ptr, i32, ptr, i32, i64, i32, ptr, ptr, ptr }
%struct.hwloc_synthetic_backend_data_s = type { ptr, i64, %struct.hwloc_synthetic_indexes_s, [128 x %struct.hwloc_synthetic_level_data_s] }
%struct.hwloc_synthetic_indexes_s = type { ptr, i64, ptr, i32 }
%struct.hwloc_synthetic_level_data_s = type { i32, i64, %struct.hwloc_synthetic_attr_s, %struct.hwloc_synthetic_indexes_s, ptr }
%struct.hwloc_synthetic_attr_s = type { i32, i32, i32, i64, i64 }
%struct.hwloc_topology_discovery_support = type { i8, i8, i8, i8, i8, i8 }

@.str.60 = private unnamed_addr constant [8 x i8] c"Backend\00", align 1
@.str.61 = private unnamed_addr constant [10 x i8] c"Synthetic\00", align 1
@.str.62 = private unnamed_addr constant [21 x i8] c"SyntheticDescription\00", align 1

; Function Attrs: nounwind uwtable
define internal i32 @hwloc_look_synthetic(ptr noundef %0, ptr noundef %1) #0 {
  %3 = alloca ptr, align 8
  %4 = alloca ptr, align 8
  %5 = alloca ptr, align 8
  %6 = alloca ptr, align 8
  %7 = alloca ptr, align 8
  %8 = alloca i32, align 4
  store ptr %0, ptr %3, align 8, !tbaa !87
  store ptr %1, ptr %4, align 8, !tbaa !132
  call void @llvm.lifetime.start.p0(i64 8, ptr %5) #13
  %9 = load ptr, ptr %3, align 8, !tbaa !87
  %10 = getelementptr inbounds nuw %struct.hwloc_backend, ptr %9, i32 0, i32 1
  %11 = load ptr, ptr %10, align 8, !tbaa !134
  store ptr %11, ptr %5, align 8, !tbaa !3
  call void @llvm.lifetime.start.p0(i64 8, ptr %6) #13
  %12 = load ptr, ptr %3, align 8, !tbaa !87
  %13 = getelementptr inbounds nuw i8, ptr %12, i64 80
  store ptr %13, ptr %6, align 8, !tbaa !88
  call void @llvm.lifetime.start.p0(i64 8, ptr %7) #13
  %14 = call noalias ptr @hwloc_bitmap_alloc()
  store ptr %14, ptr %7, align 8, !tbaa !57
  call void @llvm.lifetime.start.p0(i64 4, ptr %8) #13
  %15 = load ptr, ptr %5, align 8, !tbaa !3
  %16 = getelementptr inbounds nuw %struct.hwloc_topology, ptr %15, i32 0, i32 4
  %17 = load ptr, ptr %16, align 8, !tbaa !75
  %18 = getelementptr inbounds ptr, ptr %17, i64 0
  %19 = load ptr, ptr %18, align 8, !tbaa !73
  %20 = getelementptr inbounds ptr, ptr %19, i64 0
  %21 = load ptr, ptr %20, align 8, !tbaa !12
  call void @hwloc_alloc_root_sets(ptr noundef %21)
  %22 = load ptr, ptr %5, align 8, !tbaa !3
  %23 = getelementptr inbounds nuw %struct.hwloc_topology, ptr %22, i32 0, i32 19
  %24 = getelementptr inbounds nuw %struct.hwloc_topology_support, ptr %23, i32 0, i32 0
  %25 = load ptr, ptr %24, align 8, !tbaa !135
  %26 = getelementptr inbounds nuw %struct.hwloc_topology_discovery_support, ptr %25, i32 0, i32 0
  store i8 1, ptr %26, align 1, !tbaa !136
  %27 = load ptr, ptr %5, align 8, !tbaa !3
  %28 = getelementptr inbounds nuw %struct.hwloc_topology, ptr %27, i32 0, i32 19
  %29 = getelementptr inbounds nuw %struct.hwloc_topology_support, ptr %28, i32 0, i32 0
  %30 = load ptr, ptr %29, align 8, !tbaa !135
  %31 = getelementptr inbounds nuw %struct.hwloc_topology_discovery_support, ptr %30, i32 0, i32 1
  store i8 1, ptr %31, align 1, !tbaa !138
  %32 = load ptr, ptr %5, align 8, !tbaa !3
  %33 = getelementptr inbounds nuw %struct.hwloc_topology, ptr %32, i32 0, i32 19
  %34 = getelementptr inbounds nuw %struct.hwloc_topology_support, ptr %33, i32 0, i32 0
  %35 = load ptr, ptr %34, align 8, !tbaa !135
  %36 = getelementptr inbounds nuw %struct.hwloc_topology_discovery_support, ptr %35, i32 0, i32 2
  store i8 1, ptr %36, align 1, !tbaa !139
  store i32 0, ptr %8, align 4, !tbaa !14
  br label %37

37:                                               ; preds = %54, %2
  %38 = load ptr, ptr %6, align 8, !tbaa !88
  %39 = getelementptr inbounds nuw %struct.hwloc_synthetic_backend_data_s, ptr %38, i32 0, i32 3
  %40 = load i32, ptr %8, align 4, !tbaa !14
  %41 = zext i32 %40 to i64
  %42 = getelementptr inbounds nuw [128 x %struct.hwloc_synthetic_level_data_s], ptr %39, i64 0, i64 %41
  %43 = getelementptr inbounds nuw %struct.hwloc_synthetic_level_data_s, ptr %42, i32 0, i32 0
  %44 = load i32, ptr %43, align 8, !tbaa !109
  %45 = icmp ugt i32 %44, 0
  br i1 %45, label %46, label %57

46:                                               ; preds = %37
  %47 = load ptr, ptr %6, align 8, !tbaa !88
  %48 = getelementptr inbounds nuw %struct.hwloc_synthetic_backend_data_s, ptr %47, i32 0, i32 3
  %49 = load i32, ptr %8, align 4, !tbaa !14
  %50 = zext i32 %49 to i64
  %51 = getelementptr inbounds nuw [128 x %struct.hwloc_synthetic_level_data_s], ptr %48, i64 0, i64 %50
  %52 = getelementptr inbounds nuw %struct.hwloc_synthetic_level_data_s, ptr %51, i32 0, i32 3
  %53 = getelementptr inbounds nuw %struct.hwloc_synthetic_indexes_s, ptr %52, i32 0, i32 3
  store i32 0, ptr %53, align 8, !tbaa !140
  br label %54

54:                                               ; preds = %46
  %55 = load i32, ptr %8, align 4, !tbaa !14
  %56 = add i32 %55, 1
  store i32 %56, ptr %8, align 4, !tbaa !14
  br label %37, !llvm.loop !141

57:                                               ; preds = %37
  %58 = load ptr, ptr %6, align 8, !tbaa !88
  %59 = getelementptr inbounds nuw %struct.hwloc_synthetic_backend_data_s, ptr %58, i32 0, i32 2
  %60 = getelementptr inbounds nuw %struct.hwloc_synthetic_indexes_s, ptr %59, i32 0, i32 3
  store i32 0, ptr %60, align 8, !tbaa !142
  %61 = load ptr, ptr %6, align 8, !tbaa !88
  %62 = getelementptr inbounds nuw %struct.hwloc_synthetic_backend_data_s, ptr %61, i32 0, i32 3
  %63 = load i32, ptr %8, align 4, !tbaa !14
  %64 = zext i32 %63 to i64
  %65 = getelementptr inbounds nuw [128 x %struct.hwloc_synthetic_level_data_s], ptr %62, i64 0, i64 %64
  %66 = getelementptr inbounds nuw %struct.hwloc_synthetic_level_data_s, ptr %65, i32 0, i32 3
  %67 = getelementptr inbounds nuw %struct.hwloc_synthetic_indexes_s, ptr %66, i32 0, i32 3
  store i32 0, ptr %67, align 8, !tbaa !140
  %68 = load ptr, ptr %6, align 8, !tbaa !88
  %69 = getelementptr inbounds nuw %struct.hwloc_synthetic_backend_data_s, ptr %68, i32 0, i32 3
  %70 = getelementptr inbounds [128 x %struct.hwloc_synthetic_level_data_s], ptr %69, i64 0, i64 0
  %71 = getelementptr inbounds nuw %struct.hwloc_synthetic_level_data_s, ptr %70, i32 0, i32 2
  %72 = getelementptr inbounds nuw %struct.hwloc_synthetic_attr_s, ptr %71, i32 0, i32 0
  %73 = load i32, ptr %72, align 8, !tbaa !102
  %74 = load ptr, ptr %5, align 8, !tbaa !3
  %75 = getelementptr inbounds nuw %struct.hwloc_topology, ptr %74, i32 0, i32 4
  %76 = load ptr, ptr %75, align 8, !tbaa !75
  %77 = getelementptr inbounds ptr, ptr %76, i64 0
  %78 = load ptr, ptr %77, align 8, !tbaa !73
  %79 = getelementptr inbounds ptr, ptr %78, i64 0
  %80 = load ptr, ptr %79, align 8, !tbaa !12
  %81 = getelementptr inbounds nuw %struct.hwloc_obj, ptr %80, i32 0, i32 0
  store i32 %73, ptr %81, align 8, !tbaa !46
  %82 = load ptr, ptr %6, align 8, !tbaa !88
  %83 = getelementptr inbounds nuw %struct.hwloc_synthetic_backend_data_s, ptr %82, i32 0, i32 3
  %84 = getelementptr inbounds [128 x %struct.hwloc_synthetic_level_data_s], ptr %83, i64 0, i64 0
  %85 = getelementptr inbounds nuw %struct.hwloc_synthetic_level_data_s, ptr %84, i32 0, i32 2
  %86 = load ptr, ptr %5, align 8, !tbaa !3
  %87 = getelementptr inbounds nuw %struct.hwloc_topology, ptr %86, i32 0, i32 4
  %88 = load ptr, ptr %87, align 8, !tbaa !75
  %89 = getelementptr inbounds ptr, ptr %88, i64 0
  %90 = load ptr, ptr %89, align 8, !tbaa !73
  %91 = getelementptr inbounds ptr, ptr %90, i64 0
  %92 = load ptr, ptr %91, align 8, !tbaa !12
  call void @hwloc_synthetic_set_attr(ptr noundef %85, ptr noundef %92)
  store i32 0, ptr %8, align 4, !tbaa !14
  br label %93

93:                                               ; preds = %105, %57
  %94 = load i32, ptr %8, align 4, !tbaa !14
  %95 = load ptr, ptr %6, align 8, !tbaa !88
  %96 = getelementptr inbounds nuw %struct.hwloc_synthetic_backend_data_s, ptr %95, i32 0, i32 3
  %97 = getelementptr inbounds [128 x %struct.hwloc_synthetic_level_data_s], ptr %96, i64 0, i64 0
  %98 = getelementptr inbounds nuw %struct.hwloc_synthetic_level_data_s, ptr %97, i32 0, i32 0
  %99 = load i32, ptr %98, align 8, !tbaa !109
  %100 = icmp ult i32 %94, %99
  br i1 %100, label %101, label %108

101:                                              ; preds = %93
  %102 = load ptr, ptr %5, align 8, !tbaa !3
  %103 = load ptr, ptr %6, align 8, !tbaa !88
  %104 = load ptr, ptr %7, align 8, !tbaa !57
  call void @hwloc__look_synthetic(ptr noundef %102, ptr noundef %103, i32 noundef 1, ptr noundef %104)
  br label %105

105:                                              ; preds = %101
  %106 = load i32, ptr %8, align 4, !tbaa !14
  %107 = add i32 %106, 1
  store i32 %107, ptr %8, align 4, !tbaa !14
  br label %93, !llvm.loop !143

108:                                              ; preds = %93
  %109 = load ptr, ptr %5, align 8, !tbaa !3
  %110 = load ptr, ptr %6, align 8, !tbaa !88
  %111 = load ptr, ptr %6, align 8, !tbaa !88
  %112 = getelementptr inbounds nuw %struct.hwloc_synthetic_backend_data_s, ptr %111, i32 0, i32 3
  %113 = getelementptr inbounds [128 x %struct.hwloc_synthetic_level_data_s], ptr %112, i64 0, i64 0
  %114 = getelementptr inbounds nuw %struct.hwloc_synthetic_level_data_s, ptr %113, i32 0, i32 4
  %115 = load ptr, ptr %114, align 8, !tbaa !107
  %116 = load ptr, ptr %7, align 8, !tbaa !57
  call void @hwloc_synthetic_insert_attached(ptr noundef %109, ptr noundef %110, ptr noundef %115, ptr noundef %116)
  %117 = load ptr, ptr %7, align 8, !tbaa !57
  call void @hwloc_bitmap_free(ptr noundef %117)
  %118 = load ptr, ptr %5, align 8, !tbaa !3
  %119 = getelementptr inbounds nuw %struct.hwloc_topology, ptr %118, i32 0, i32 20
  %120 = call i32 @hwloc__add_info(ptr noundef %119, ptr noundef @.str.60, ptr noundef @.str.61)
  %121 = load ptr, ptr %5, align 8, !tbaa !3
  %122 = getelementptr inbounds nuw %struct.hwloc_topology, ptr %121, i32 0, i32 20
  %123 = load ptr, ptr %6, align 8, !tbaa !88
  %124 = getelementptr inbounds nuw %struct.hwloc_synthetic_backend_data_s, ptr %123, i32 0, i32 0
  %125 = load ptr, ptr %124, align 8, !tbaa !131
  %126 = call i32 @hwloc__add_info(ptr noundef %122, ptr noundef @.str.62, ptr noundef %125)
  call void @llvm.lifetime.end.p0(i64 4, ptr %8) #13
  call void @llvm.lifetime.end.p0(i64 8, ptr %7) #13
  call void @llvm.lifetime.end.p0(i64 8, ptr %6) #13
  call void @llvm.lifetime.end.p0(i64 8, ptr %5) #13
  ret i32 0
}