; Function Attrs: nounwind uwtable
define internal noundef i32 @hwloc_look_synthetic(ptr noundef captures(none) %0, ptr readnone captures(none) %1) #0 {
  %3 = getelementptr inbounds nuw i8, ptr %0, i64 8
  %4 = load ptr, ptr %3, align 8, !tbaa !122
  %5 = getelementptr inbounds nuw i8, ptr %0, i64 80
  %6 = tail call noalias ptr @hwloc_bitmap_alloc() #22
  %7 = getelementptr inbounds nuw i8, ptr %4, i64 24
  %8 = load ptr, ptr %7, align 8, !tbaa !64
  %9 = load ptr, ptr %8, align 8, !tbaa !65
  %10 = load ptr, ptr %9, align 8, !tbaa !47
  tail call void @hwloc_alloc_root_sets(ptr noundef %10) #22
  %11 = getelementptr inbounds nuw i8, ptr %4, i64 656
  %12 = load ptr, ptr %11, align 8, !tbaa !123
  store i8 1, ptr %12, align 1, !tbaa !124
  %13 = getelementptr inbounds nuw i8, ptr %12, i64 1
  store i8 1, ptr %13, align 1, !tbaa !126
  %14 = getelementptr inbounds nuw i8, ptr %12, i64 2
  store i8 1, ptr %14, align 1, !tbaa !127
  %15 = getelementptr inbounds nuw i8, ptr %0, i64 128
  %16 = load i32, ptr %15, align 8, !tbaa !94
  %.not32 = icmp eq i32 %16, 0
  br i1 %.not32, label %._crit_edge, label %.lr.ph

.lr.ph:                                           ; preds = %2, %.lr.ph
  %17 = phi ptr [ %21, %.lr.ph ], [ %15, %2 ]
  %.033 = phi i32 [ %19, %.lr.ph ], [ 0, %2 ]
  %18 = getelementptr inbounds nuw i8, ptr %17, i64 72
  store i32 0, ptr %18, align 8, !tbaa !128
  %19 = add i32 %.033, 1
  %20 = zext i32 %19 to i64
  %21 = getelementptr inbounds nuw [128 x %struct.hwloc_synthetic_level_data_s], ptr %15, i64 0, i64 %20
  %22 = load i32, ptr %21, align 8, !tbaa !94
  %.not = icmp eq i32 %22, 0
  br i1 %.not, label %._crit_edge, label %.lr.ph, !llvm.loop !129

._crit_edge:                                      ; preds = %.lr.ph, %2
  %.lcssa = phi ptr [ %15, %2 ], [ %21, %.lr.ph ]
  %23 = getelementptr inbounds nuw i8, ptr %0, i64 120
  store i32 0, ptr %23, align 8, !tbaa !130
  %24 = getelementptr inbounds nuw i8, ptr %.lcssa, i64 72
  store i32 0, ptr %24, align 8, !tbaa !128
  %25 = getelementptr inbounds nuw i8, ptr %0, i64 144
  %26 = load i32, ptr %25, align 8, !tbaa !90
  %27 = load ptr, ptr %7, align 8, !tbaa !64
  %28 = load ptr, ptr %27, align 8, !tbaa !65
  %29 = load ptr, ptr %28, align 8, !tbaa !47
  store i32 %26, ptr %29, align 8, !tbaa !50
  tail call fastcc void @hwloc_synthetic_set_attr(ptr noundef nonnull %25, ptr noundef nonnull %29)
  %30 = load i32, ptr %15, align 8, !tbaa !94
  %.not39 = icmp eq i32 %30, 0
  br i1 %.not39, label %._crit_edge38, label %.lr.ph37

.lr.ph37:                                         ; preds = %._crit_edge, %.lr.ph37
  %.135 = phi i32 [ %31, %.lr.ph37 ], [ 0, %._crit_edge ]
  tail call fastcc void @hwloc__look_synthetic(ptr noundef %4, ptr noundef nonnull %5, i32 noundef 1, ptr noundef %6)
  %31 = add nuw i32 %.135, 1
  %32 = load i32, ptr %15, align 8, !tbaa !94
  %33 = icmp ult i32 %31, %32
  br i1 %33, label %.lr.ph37, label %._crit_edge38, !llvm.loop !131

._crit_edge38:                                    ; preds = %.lr.ph37, %._crit_edge
  %34 = getelementptr inbounds nuw i8, ptr %0, i64 208
  %35 = load ptr, ptr %34, align 8, !tbaa !92
  tail call fastcc void @hwloc_synthetic_insert_attached(ptr noundef %4, ptr noundef nonnull %5, ptr noundef %35, ptr noundef %6)
  tail call void @hwloc_bitmap_free(ptr noundef %6) #22
  %36 = getelementptr inbounds nuw i8, ptr %4, i64 688
  %37 = tail call i32 @hwloc__add_info(ptr noundef nonnull %36, ptr noundef nonnull @.str.60, ptr noundef nonnull @.str.61) #22
  %38 = load ptr, ptr %5, align 8, !tbaa !115
  %39 = tail call i32 @hwloc__add_info(ptr noundef nonnull %36, ptr noundef nonnull @.str.62, ptr noundef %38) #22
  ret i32 0
}